; ModuleID = '49/18.c'
source_filename = "49/18.c"
target datalayout = "e-m:e-p270:32:32-p271:32:32-p272:64:64-i64:64-f80:128-n8:16:32:64-S128"
target triple = "x86_64-pc-linux-gnu"

@.str = private unnamed_addr constant [3 x i8] c"%s\00", align 1
@.str.1 = private unnamed_addr constant [3 x i8] c"%c\00", align 1
@.str.2 = private unnamed_addr constant [2 x i8] c"\0A\00", align 1

; Function Attrs: noinline nounwind uwtable
define dso_local i32 @main() #0 {
  %1 = alloca i32, align 4
  %2 = alloca i32, align 4
  %3 = alloca i32, align 4
  %4 = alloca i32, align 4
  %5 = alloca i32, align 4
  %6 = alloca i32, align 4
  %7 = alloca i32, align 4
  %8 = alloca i32, align 4
  %9 = alloca i32, align 4
  %10 = alloca [500 x i8], align 16
  store i32 0, i32* %1, align 4
  store i32 0, i32* %9, align 4
  %11 = getelementptr inbounds [500 x i8], [500 x i8]* %10, i64 0, i64 0
  %12 = call i32 (i8*, ...) @__isoc99_scanf(i8* getelementptr inbounds ([3 x i8], [3 x i8]* @.str, i64 0, i64 0), i8* %11)
  %13 = getelementptr inbounds [500 x i8], [500 x i8]* %10, i64 0, i64 0
  %14 = call i64 @strlen(i8* %13) #3
  %15 = trunc i64 %14 to i32
  store i32 %15, i32* %2, align 4
  %16 = load i32, i32* %2, align 4
  %17 = sdiv i32 %16, 2
  store i32 %17, i32* %6, align 4
  store i32 1, i32* %4, align 4
  br label %18

18:                                               ; preds = %90, %0
  %19 = load i32, i32* %4, align 4
  %20 = load i32, i32* %6, align 4
  %21 = add nsw i32 %20, 1
  %22 = icmp slt i32 %19, %21
  br i1 %22, label %23, label %93

23:                                               ; preds = %18
  %24 = load i32, i32* %4, align 4
  store i32 %24, i32* %5, align 4
  store i32 0, i32* %3, align 4
  br label %25

25:                                               ; preds = %86, %23
  %26 = load i32, i32* %3, align 4
  %27 = load i32, i32* %2, align 4
  %28 = sub nsw i32 %27, 1
  %29 = icmp slt i32 %26, %28
  br i1 %29, label %30, label %89

30:                                               ; preds = %25
  store i32 0, i32* %7, align 4
  br label %31

31:                                               ; preds = %58, %30
  %32 = load i32, i32* %7, align 4
  %33 = load i32, i32* %5, align 4
  %34 = icmp slt i32 %32, %33
  br i1 %34, label %35, label %61

35:                                               ; preds = %31
  store i32 0, i32* %9, align 4
  %36 = load i32, i32* %3, align 4
  %37 = load i32, i32* %7, align 4
  %38 = add nsw i32 %36, %37
  %39 = sext i32 %38 to i64
  %40 = getelementptr inbounds [500 x i8], [500 x i8]* %10, i64 0, i64 %39
  %41 = load i8, i8* %40, align 1
  %42 = sext i8 %41 to i32
  %43 = load i32, i32* %3, align 4
  %44 = load i32, i32* %5, align 4
  %45 = mul nsw i32 2, %44
  %46 = add nsw i32 %43, %45
  %47 = load i32, i32* %7, align 4
  %48 = sub nsw i32 %46, %47
  %49 = sub nsw i32 %48, 1
  %50 = sext i32 %49 to i64
  %51 = getelementptr inbounds [500 x i8], [500 x i8]* %10, i64 0, i64 %50
  %52 = load i8, i8* %51, align 1
  %53 = sext i8 %52 to i32
  %54 = icmp eq i32 %42, %53
  br i1 %54, label %55, label %56

55:                                               ; preds = %35
  br label %57

56:                                               ; preds = %35
  store i32 1, i32* %9, align 4
  br label %61

57:                                               ; preds = %55
  br label %58

58:                                               ; preds = %57
  %59 = load i32, i32* %7, align 4
  %60 = add nsw i32 %59, 1
  store i32 %60, i32* %7, align 4
  br label %31

61:                                               ; preds = %56, %31
  %62 = load i32, i32* %7, align 4
  %63 = load i32, i32* %5, align 4
  %64 = icmp eq i32 %62, %63
  br i1 %64, label %65, label %85

65:                                               ; preds = %61
  store i32 0, i32* %8, align 4
  br label %66

66:                                               ; preds = %80, %65
  %67 = load i32, i32* %8, align 4
  %68 = load i32, i32* %4, align 4
  %69 = mul nsw i32 %68, 2
  %70 = icmp slt i32 %67, %69
  br i1 %70, label %71, label %83

71:                                               ; preds = %66
  %72 = load i32, i32* %3, align 4
  %73 = load i32, i32* %8, align 4
  %74 = add nsw i32 %72, %73
  %75 = sext i32 %74 to i64
  %76 = getelementptr inbounds [500 x i8], [500 x i8]* %10, i64 0, i64 %75
  %77 = load i8, i8* %76, align 1
  %78 = sext i8 %77 to i32
  %79 = call i32 (i8*, ...) @printf(i8* getelementptr inbounds ([3 x i8], [3 x i8]* @.str.1, i64 0, i64 0), i32 %78)
  br label %80

80:                                               ; preds = %71
  %81 = load i32, i32* %8, align 4
  %82 = add nsw i32 %81, 1
  store i32 %82, i32* %8, align 4
  br label %66

83:                                               ; preds = %66
  %84 = call i32 (i8*, ...) @printf(i8* getelementptr inbounds ([2 x i8], [2 x i8]* @.str.2, i64 0, i64 0))
  br label %85

85:                                               ; preds = %83, %61
  br label %86

86:                                               ; preds = %85
  %87 = load i32, i32* %3, align 4
  %88 = add nsw i32 %87, 1
  store i32 %88, i32* %3, align 4
  br label %25

89:                                               ; preds = %25
  br label %90

90:                                               ; preds = %89
  %91 = load i32, i32* %4, align 4
  %92 = add nsw i32 %91, 1
  store i32 %92, i32* %4, align 4
  br label %18

93:                                               ; preds = %18
  ret i32 0
}

declare dso_local i32 @__isoc99_scanf(i8*, ...) #1

; Function Attrs: nounwind readonly
declare dso_local i64 @strlen(i8*) #2

declare dso_local i32 @printf(i8*, ...) #1


!llvm.module.flags = !{!0}
!llvm.ident = !{!1}

!0 = !{i32 1, !"wchar_size", i32 4}
!1 = !{!"clang version 10.0.0-4ubuntu1 "}
